target datalayout = "e-m:e-p270:32:32-p271:32:32-p272:64:64-i64:64-i128:128-f80:128-n8:16:32:64-S128"
target triple = "x86_64-pc-linux-gnu"

%struct.ident_t = type { i32, i32, i32, i32, ptr }

@1 = private unnamed_addr constant %struct.ident_t { i32 0, i32 514, i32 0, i32 22, ptr @0 }, align 8

; Function Attrs: alwaysinline norecurse nounwind ssp uwtable
define internal void @_ZN6open3d4core12CPUResetHeapERNS0_6TensorE.omp_outlined(ptr noalias noundef %0, ptr noalias noundef %1, ptr noundef nonnull align 8 dereferenceable(8) %2, ptr noundef nonnull align 8 dereferenceable(8) %3) #3 {
  %5 = alloca ptr, align 8
  %6 = alloca ptr, align 8
  %7 = alloca ptr, align 8
  %8 = alloca ptr, align 8
  %9 = alloca i64, align 8
  %10 = alloca i64, align 8
  %11 = alloca i64, align 8
  %12 = alloca i64, align 8
  %13 = alloca i64, align 8
  %14 = alloca i64, align 8
  %15 = alloca i64, align 8
  %16 = alloca i32, align 4
  %17 = alloca i64, align 8
  store ptr %0, ptr %5, align 8, !tbaa !9
  store ptr %1, ptr %6, align 8, !tbaa !9
  store ptr %2, ptr %7, align 8, !tbaa !13
  store ptr %3, ptr %8, align 8, !tbaa !15
  %18 = load ptr, ptr %7, align 8, !tbaa !13
  %19 = load ptr, ptr %8, align 8, !tbaa !15
  call void @llvm.lifetime.start.p0(i64 8, ptr %9) #4
  call void @llvm.lifetime.start.p0(i64 8, ptr %10) #4
  %20 = load i64, ptr %18, align 8, !tbaa !11
  store i64 %20, ptr %10, align 8, !tbaa !11
  call void @llvm.lifetime.start.p0(i64 8, ptr %11) #4
  %21 = load i64, ptr %10, align 8, !tbaa !11
  %22 = sub nsw i64 %21, 0
  %23 = sdiv i64 %22, 1
  %24 = sub nsw i64 %23, 1
  store i64 %24, ptr %11, align 8, !tbaa !11
  call void @llvm.lifetime.start.p0(i64 8, ptr %12) #4
  store i64 0, ptr %12, align 8, !tbaa !11
  call void @llvm.lifetime.end.p0(i64 8, ptr %12) #4
  %25 = load i64, ptr %10, align 8, !tbaa !11
  %26 = icmp slt i64 0, %25
  br i1 %26, label %27, label %63

27:                                               ; preds = %4
  call void @llvm.lifetime.start.p0(i64 8, ptr %13) #4
  store i64 0, ptr %13, align 8, !tbaa !11
  call void @llvm.lifetime.start.p0(i64 8, ptr %14) #4
  %28 = load i64, ptr %11, align 8, !tbaa !11
  store i64 %28, ptr %14, align 8, !tbaa !11
  call void @llvm.lifetime.start.p0(i64 8, ptr %15) #4
  store i64 1, ptr %15, align 8, !tbaa !11
  call void @llvm.lifetime.start.p0(i64 4, ptr %16) #4
  store i32 0, ptr %16, align 4, !tbaa !18
  call void @llvm.lifetime.start.p0(i64 8, ptr %17) #4
  %29 = load ptr, ptr %5, align 8
  %30 = load i32, ptr %29, align 4, !tbaa !18
  call void @__kmpc_for_static_init_8(ptr @1, i32 %30, i32 34, ptr %16, ptr %13, ptr %14, ptr %15, i64 1, i64 1)
  %31 = load i64, ptr %14, align 8, !tbaa !11
  %32 = load i64, ptr %11, align 8, !tbaa !11
  %33 = icmp sgt i64 %31, %32
  br i1 %33, label %34, label %36

34:                                               ; preds = %27
  %35 = load i64, ptr %11, align 8, !tbaa !11
  br label %38

36:                                               ; preds = %27
  %37 = load i64, ptr %14, align 8, !tbaa !11
  br label %38

38:                                               ; preds = %36, %34
  %39 = phi i64 [ %35, %34 ], [ %37, %36 ]
  store i64 %39, ptr %14, align 8, !tbaa !11
  %40 = load i64, ptr %13, align 8, !tbaa !11
  store i64 %40, ptr %9, align 8, !tbaa !11
  br label %41

41:                                               ; preds = %56, %38
  %42 = load i64, ptr %9, align 8, !tbaa !11
  %43 = load i64, ptr %14, align 8, !tbaa !11
  %44 = icmp sle i64 %42, %43
  br i1 %44, label %46, label %45

45:                                               ; preds = %41
  br label %59

46:                                               ; preds = %41
  %47 = load i64, ptr %9, align 8, !tbaa !11
  %48 = mul nsw i64 %47, 1
  %49 = add nsw i64 0, %48
  store i64 %49, ptr %17, align 8, !tbaa !11
  %50 = load i64, ptr %17, align 8, !tbaa !11
  %51 = trunc i64 %50 to i32
  %52 = load ptr, ptr %19, align 8, !tbaa !9
  %53 = load i64, ptr %17, align 8, !tbaa !11
  %54 = getelementptr inbounds i32, ptr %52, i64 %53
  store i32 %51, ptr %54, align 4, !tbaa !18
  br label %55

55:                                               ; preds = %46
  br label %56

56:                                               ; preds = %55
  %57 = load i64, ptr %9, align 8, !tbaa !11
  %58 = add nsw i64 %57, 1
  store i64 %58, ptr %9, align 8, !tbaa !11
  br label %41

59:                                               ; preds = %45
  br label %60

60:                                               ; preds = %59
  %61 = load ptr, ptr %5, align 8
  %62 = load i32, ptr %61, align 4, !tbaa !18
  call void @__kmpc_for_static_fini(ptr @1, i32 %62)
  call void @llvm.lifetime.end.p0(i64 8, ptr %17) #4
  call void @llvm.lifetime.end.p0(i64 4, ptr %16) #4
  call void @llvm.lifetime.end.p0(i64 8, ptr %15) #4
  call void @llvm.lifetime.end.p0(i64 8, ptr %14) #4
  call void @llvm.lifetime.end.p0(i64 8, ptr %13) #4
  br label %63

63:                                               ; preds = %60, %4
  call void @llvm.lifetime.end.p0(i64 8, ptr %11) #4
  call void @llvm.lifetime.end.p0(i64 8, ptr %10) #4
  call void @llvm.lifetime.end.p0(i64 8, ptr %9) #4
  ret void
}